; Function Attrs: mustprogress uwtable
define internal void @_ZNK2cv4impl12_GLOBAL__N_120CvtColorLoop_InvokerINS_3hal12cpu_baseline12_GLOBAL__N_17RGB2RGBItEEEclERKNS_5RangeE(ptr nocapture noundef nonnull readonly align 8 dereferenceable(56) %0, ptr nocapture noundef nonnull readonly align 4 dereferenceable(8) %1) unnamed_addr #0 align 2 personality ptr @__gxx_personality_v0 {
  %3 = alloca %"class.cv::utils::trace::details::Region", align 8
  call void @_ZN2cv5utils5trace7details6RegionC1ERKNS3_21LocationStaticStorageE(ptr noundef nonnull align 8 dereferenceable(12) %3, ptr noundef nonnull align 8 dereferenceable(32) @_ZZNK2cv4impl12_GLOBAL__N_120CvtColorLoop_InvokerINS_3hal12cpu_baseline12_GLOBAL__N_17RGB2RGBItEEEclERKNS_5RangeEE25__cv_trace_location_fn146)
  %4 = load i32, ptr %1, align 4
  %5 = getelementptr inbounds i8, ptr %0, i64 16
  %6 = getelementptr inbounds i8, ptr %0, i64 32
  %7 = getelementptr inbounds i8, ptr %1, i64 4
  %8 = load i32, ptr %7, align 4
  %9 = icmp slt i32 %4, %8
  br i1 %9, label %.lr.ph, label %._crit_edge

.lr.ph:                                           ; preds = %2
  %10 = getelementptr inbounds i8, ptr %0, i64 40
  %11 = getelementptr inbounds i8, ptr %0, i64 48
  %12 = load i32, ptr %10, align 8
  %13 = icmp sgt i32 %12, 0
  br i1 %13, label %.lr.ph.split.preheader, label %._crit_edge

.lr.ph.split.preheader:                           ; preds = %.lr.ph
  %14 = getelementptr inbounds i8, ptr %0, i64 8
  %15 = load ptr, ptr %14, align 8
  %16 = load i64, ptr %5, align 8
  %17 = sext i32 %4 to i64
  %18 = mul i64 %16, %17
  %19 = getelementptr inbounds i8, ptr %15, i64 %18
  %20 = getelementptr inbounds i8, ptr %0, i64 24
  %21 = load ptr, ptr %20, align 8
  %22 = load i64, ptr %6, align 8
  %23 = mul i64 %22, %17
  %24 = getelementptr inbounds i8, ptr %21, i64 %23
  br label %.lr.ph.split

.lr.ph.split:                                     ; preds = %.lr.ph.split.preheader, %_ZNK2cv3hal12cpu_baseline12_GLOBAL__N_17RGB2RGBItEclEPKtPti.exit
  %.018 = phi ptr [ %79, %_ZNK2cv3hal12cpu_baseline12_GLOBAL__N_17RGB2RGBItEclEPKtPti.exit ], [ %19, %.lr.ph.split.preheader ]
  %.01217 = phi ptr [ %81, %_ZNK2cv3hal12cpu_baseline12_GLOBAL__N_17RGB2RGBItEclEPKtPti.exit ], [ %24, %.lr.ph.split.preheader ]
  %.01316 = phi i32 [ %77, %_ZNK2cv3hal12cpu_baseline12_GLOBAL__N_17RGB2RGBItEclEPKtPti.exit ], [ %4, %.lr.ph.split.preheader ]
  %25 = load i32, ptr %10, align 8
  %26 = icmp sgt i32 %25, 0
  br i1 %26, label %.lr.ph.i, label %_ZNK2cv3hal12cpu_baseline12_GLOBAL__N_17RGB2RGBItEclEPKtPti.exit

.lr.ph.i:                                         ; preds = %.lr.ph.split
  %27 = load ptr, ptr %11, align 8
  %28 = getelementptr inbounds i8, ptr %27, i64 8
  %29 = load i32, ptr %28, align 4
  %30 = getelementptr inbounds i8, ptr %27, i64 4
  %31 = load i32, ptr %30, align 4
  %32 = load i32, ptr %27, align 4
  %33 = sext i32 %29 to i64
  %34 = xor i32 %29, 2
  %35 = sext i32 %34 to i64
  %36 = icmp eq i32 %31, 4
  %37 = sext i32 %32 to i64
  %38 = sext i32 %31 to i64
  br i1 %36, label %.lr.ph.split.us.i, label %.lr.ph.split.i

.lr.ph.split.us.i:                                ; preds = %.lr.ph.i
  %39 = icmp eq i32 %32, 4
  br i1 %39, label %.lr.ph.split.us.split.us.i, label %.lr.ph.split.us.split.i

.lr.ph.split.us.split.us.i:                       ; preds = %.lr.ph.split.us.i, %.lr.ph.split.us.split.us.i
  %.028.us.us.i = phi ptr [ %52, %.lr.ph.split.us.split.us.i ], [ %.018, %.lr.ph.split.us.i ]
  %.02427.us.us.i = phi ptr [ %53, %.lr.ph.split.us.split.us.i ], [ %.01217, %.lr.ph.split.us.i ]
  %.02526.us.us.i = phi i32 [ %51, %.lr.ph.split.us.split.us.i ], [ 0, %.lr.ph.split.us.i ]
  %40 = load i16, ptr %.028.us.us.i, align 2
  %41 = getelementptr inbounds i8, ptr %.028.us.us.i, i64 2
  %42 = load i16, ptr %41, align 2
  %43 = getelementptr inbounds i8, ptr %.028.us.us.i, i64 4
  %44 = load i16, ptr %43, align 2
  %45 = getelementptr inbounds i16, ptr %.02427.us.us.i, i64 %33
  store i16 %40, ptr %45, align 2
  %46 = getelementptr inbounds i8, ptr %.02427.us.us.i, i64 2
  store i16 %42, ptr %46, align 2
  %47 = getelementptr inbounds i16, ptr %.02427.us.us.i, i64 %35
  store i16 %44, ptr %47, align 2
  %48 = getelementptr inbounds i8, ptr %.028.us.us.i, i64 6
  %49 = load i16, ptr %48, align 2
  %50 = getelementptr inbounds i8, ptr %.02427.us.us.i, i64 6
  store i16 %49, ptr %50, align 2
  %51 = add nuw nsw i32 %.02526.us.us.i, 1
  %52 = getelementptr inbounds i16, ptr %.028.us.us.i, i64 %37
  %53 = getelementptr inbounds i16, ptr %.02427.us.us.i, i64 %38
  %exitcond33.not.i = icmp eq i32 %51, %25
  br i1 %exitcond33.not.i, label %_ZNK2cv3hal12cpu_baseline12_GLOBAL__N_17RGB2RGBItEclEPKtPti.exit, label %.lr.ph.split.us.split.us.i, !llvm.loop !58

.lr.ph.split.us.split.i:                          ; preds = %.lr.ph.split.us.i, %.lr.ph.split.us.split.i
  %.028.us.i = phi ptr [ %64, %.lr.ph.split.us.split.i ], [ %.018, %.lr.ph.split.us.i ]
  %.02427.us.i = phi ptr [ %65, %.lr.ph.split.us.split.i ], [ %.01217, %.lr.ph.split.us.i ]
  %.02526.us.i = phi i32 [ %63, %.lr.ph.split.us.split.i ], [ 0, %.lr.ph.split.us.i ]
  %54 = load i16, ptr %.028.us.i, align 2
  %55 = getelementptr inbounds i8, ptr %.028.us.i, i64 2
  %56 = load i16, ptr %55, align 2
  %57 = getelementptr inbounds i8, ptr %.028.us.i, i64 4
  %58 = load i16, ptr %57, align 2
  %59 = getelementptr inbounds i16, ptr %.02427.us.i, i64 %33
  store i16 %54, ptr %59, align 2
  %60 = getelementptr inbounds i8, ptr %.02427.us.i, i64 2
  store i16 %56, ptr %60, align 2
  %61 = getelementptr inbounds i16, ptr %.02427.us.i, i64 %35
  store i16 %58, ptr %61, align 2
  %62 = getelementptr inbounds i8, ptr %.02427.us.i, i64 6
  store i16 -1, ptr %62, align 2
  %63 = add nuw nsw i32 %.02526.us.i, 1
  %64 = getelementptr inbounds i16, ptr %.028.us.i, i64 %37
  %65 = getelementptr inbounds i16, ptr %.02427.us.i, i64 %38
  %exitcond32.not.i = icmp eq i32 %63, %25
  br i1 %exitcond32.not.i, label %_ZNK2cv3hal12cpu_baseline12_GLOBAL__N_17RGB2RGBItEclEPKtPti.exit, label %.lr.ph.split.us.split.i, !llvm.loop !58

.lr.ph.split.i:                                   ; preds = %.lr.ph.i, %.lr.ph.split.i
  %.028.i = phi ptr [ %75, %.lr.ph.split.i ], [ %.018, %.lr.ph.i ]
  %.02427.i = phi ptr [ %76, %.lr.ph.split.i ], [ %.01217, %.lr.ph.i ]
  %.02526.i = phi i32 [ %74, %.lr.ph.split.i ], [ 0, %.lr.ph.i ]
  %66 = load i16, ptr %.028.i, align 2
  %67 = getelementptr inbounds i8, ptr %.028.i, i64 2
  %68 = load i16, ptr %67, align 2
  %69 = getelementptr inbounds i8, ptr %.028.i, i64 4
  %70 = load i16, ptr %69, align 2
  %71 = getelementptr inbounds i16, ptr %.02427.i, i64 %33
  store i16 %66, ptr %71, align 2
  %72 = getelementptr inbounds i8, ptr %.02427.i, i64 2
  store i16 %68, ptr %72, align 2
  %73 = getelementptr inbounds i16, ptr %.02427.i, i64 %35
  store i16 %70, ptr %73, align 2
  %74 = add nuw nsw i32 %.02526.i, 1
  %75 = getelementptr inbounds i16, ptr %.028.i, i64 %37
  %76 = getelementptr inbounds i16, ptr %.02427.i, i64 %38
  %exitcond.not.i = icmp eq i32 %74, %25
  br i1 %exitcond.not.i, label %_ZNK2cv3hal12cpu_baseline12_GLOBAL__N_17RGB2RGBItEclEPKtPti.exit, label %.lr.ph.split.i, !llvm.loop !58

_ZNK2cv3hal12cpu_baseline12_GLOBAL__N_17RGB2RGBItEclEPKtPti.exit: ; preds = %.lr.ph.split.i, %.lr.ph.split.us.split.i, %.lr.ph.split.us.split.us.i, %.lr.ph.split
  %77 = add nsw i32 %.01316, 1
  %78 = load i64, ptr %5, align 8
  %79 = getelementptr inbounds i8, ptr %.018, i64 %78
  %80 = load i64, ptr %6, align 8
  %81 = getelementptr inbounds i8, ptr %.01217, i64 %80
  %82 = load i32, ptr %7, align 4
  %83 = icmp slt i32 %77, %82
  br i1 %83, label %.lr.ph.split, label %._crit_edge, !llvm.loop !59

._crit_edge:                                      ; preds = %_ZNK2cv3hal12cpu_baseline12_GLOBAL__N_17RGB2RGBItEclEPKtPti.exit, %.lr.ph, %2
  %84 = getelementptr inbounds i8, ptr %3, i64 8
  %85 = load i32, ptr %84, align 8
  %.not.i = icmp eq i32 %85, 0
  br i1 %.not.i, label %_ZN2cv5utils5trace7details6RegionD2Ev.exit, label %86

86:                                               ; preds = %._crit_edge
  invoke void @_ZN2cv5utils5trace7details6Region7destroyEv(ptr noundef nonnull align 8 dereferenceable(12) %3)
          to label %_ZN2cv5utils5trace7details6RegionD2Ev.exit unwind label %87

87:                                               ; preds = %86
  %88 = landingpad { ptr, i32 }
          catch ptr null
  %89 = extractvalue { ptr, i32 } %88, 0
  call void @__clang_call_terminate(ptr %89) #13
  unreachable

_ZN2cv5utils5trace7details6RegionD2Ev.exit:       ; preds = %._crit_edge, %86
  ret void
}